; Function Attrs: nofree norecurse nosync nounwind memory(read, argmem: readwrite, inaccessiblemem: none) uwtable
define internal void @sq_denorm_fltp(ptr noundef readonly captures(none) %0, ptr noundef writeonly captures(none) %1, ptr noundef readonly captures(none) %2, i32 noundef %3) #5 {
  %5 = getelementptr inbounds nuw i8, ptr %0, i64 72
  %6 = load ptr, ptr %5, align 8, !tbaa !21
  %7 = getelementptr inbounds nuw i8, ptr %6, i64 8
  %8 = load double, ptr %7, align 8, !tbaa !43
  %9 = fptrunc nsz double %8 to float
  %10 = getelementptr inbounds nuw i8, ptr %6, i64 32
  %11 = load i64, ptr %10, align 8, !tbaa !48
  %12 = icmp sgt i32 %3, 0
  br i1 %12, label %.lr.ph.preheader, label %._crit_edge

.lr.ph.preheader:                                 ; preds = %4
  %wide.trip.count = zext nneg i32 %3 to i64
  br label %.lr.ph

._crit_edge:                                      ; preds = %.lr.ph, %4
  ret void

.lr.ph:                                           ; preds = %.lr.ph.preheader, %.lr.ph
  %indvars.iv = phi i64 [ 0, %.lr.ph.preheader ], [ %indvars.iv.next, %.lr.ph ]
  %13 = getelementptr inbounds nuw float, ptr %2, i64 %indvars.iv
  %14 = load float, ptr %13, align 4, !tbaa !58
  %15 = add nsw i64 %11, %indvars.iv
  %16 = and i64 %15, 256
  %.not = icmp eq i64 %16, 0
  %17 = select nsz i1 %.not, float 1.000000e+00, float -1.000000e+00
  %18 = tail call nsz float @llvm.fmuladd.f32(float %9, float %17, float %14)
  %19 = getelementptr inbounds nuw float, ptr %1, i64 %indvars.iv
  store float %18, ptr %19, align 4, !tbaa !58
  %indvars.iv.next = add nuw nsw i64 %indvars.iv, 1
  %exitcond.not = icmp eq i64 %indvars.iv.next, %wide.trip.count
  br i1 %exitcond.not, label %._crit_edge, label %.lr.ph, !llvm.loop !62
}